; Function Attrs: mustprogress uwtable
define hidden void @_ZN4cvc58internal6theory5arith12OperatorElimC2ERNS0_3EnvE(ptr noundef nonnull align 8 dereferenceable(184) %0, ptr noundef nonnull align 8 dereferenceable(696) %1) unnamed_addr #3 align 2 personality ptr @__gxx_personality_v0 {
  tail call void @_ZN4cvc58internal6EnvObjC2ERNS0_3EnvE(ptr noundef nonnull align 8 dereferenceable(16) %0, ptr noundef nonnull align 8 dereferenceable(696) %1)
  %3 = getelementptr inbounds nuw i8, ptr %0, i64 16
  tail call void @_ZN4cvc58internal14ProofGeneratorC2Ev(ptr noundef nonnull align 8 dereferenceable(8) %3)
  store ptr getelementptr inbounds nuw inrange(-16, 32) (i8, ptr @_ZTVN4cvc58internal6theory5arith12OperatorElimE, i64 16), ptr %0, align 8, !tbaa !3
  store ptr getelementptr inbounds nuw inrange(-16, 48) (i8, ptr @_ZTVN4cvc58internal6theory5arith12OperatorElimE, i64 64), ptr %3, align 8, !tbaa !3
  %4 = getelementptr inbounds nuw i8, ptr %0, i64 32
  store i32 0, ptr %4, align 8, !tbaa !6
  %5 = getelementptr inbounds nuw i8, ptr %0, i64 40
  store ptr null, ptr %5, align 8, !tbaa !14
  %6 = getelementptr inbounds nuw i8, ptr %0, i64 48
  store ptr %4, ptr %6, align 8, !tbaa !15
  %7 = getelementptr inbounds nuw i8, ptr %0, i64 56
  store ptr %4, ptr %7, align 8, !tbaa !16
  %8 = getelementptr inbounds nuw i8, ptr %0, i64 64
  store i64 0, ptr %8, align 8, !tbaa !17
  %9 = invoke noundef ptr @_ZNK4cvc58internal6EnvObj11userContextEv(ptr noundef nonnull align 8 dereferenceable(16) %0)
          to label %10 unwind label %20

10:                                               ; preds = %2
  %11 = getelementptr inbounds nuw i8, ptr %0, i64 72
  invoke void @_ZN4cvc57context10ContextObjC2EPNS0_7ContextE(ptr noundef nonnull align 8 dereferenceable(112) %11, ptr noundef %9)
          to label %12 unwind label %20

12:                                               ; preds = %10
  store ptr getelementptr inbounds nuw inrange(-16, 32) (i8, ptr @_ZTVN4cvc57context9CDHashMapINS_8internal12NodeTemplateILb1EEES4_St4hashIS4_EEE, i64 16), ptr %11, align 8, !tbaa !3
  %13 = getelementptr inbounds nuw i8, ptr %0, i64 112
  %14 = getelementptr inbounds nuw i8, ptr %0, i64 144
  store i64 0, ptr %14, align 8
  %15 = getelementptr inbounds nuw i8, ptr %0, i64 160
  store ptr %15, ptr %13, align 8, !tbaa !18
  %16 = getelementptr inbounds nuw i8, ptr %0, i64 120
  store i64 1, ptr %16, align 8, !tbaa !25
  %17 = getelementptr inbounds nuw i8, ptr %0, i64 128
  tail call void @llvm.memset.p0.i64(ptr noundef nonnull align 8 dereferenceable(16) %17, i8 0, i64 16, i1 false)
  store float 1.000000e+00, ptr %14, align 8, !tbaa !26
  %18 = getelementptr inbounds nuw i8, ptr %0, i64 152
  %19 = getelementptr inbounds nuw i8, ptr %0, i64 176
  tail call void @llvm.memset.p0.i64(ptr noundef nonnull align 8 dereferenceable(24) %18, i8 0, i64 24, i1 false)
  store ptr %9, ptr %19, align 8, !tbaa !27
  ret void

20:                                               ; preds = %10, %2
  %21 = landingpad { ptr, i32 }
          cleanup
  %22 = getelementptr inbounds nuw i8, ptr %0, i64 24
  tail call void @_ZNSt3mapIN4cvc58SkolemIdENS0_8internal12NodeTemplateILb1EEESt4lessIS1_ESaISt4pairIKS1_S4_EEED2Ev(ptr noundef nonnull align 8 dereferenceable(48) %22) #25
  tail call void @_ZN4cvc58internal14ProofGeneratorD2Ev(ptr noundef nonnull align 8 dereferenceable(8) %3) #25
  resume { ptr, i32 } %21
}